target datalayout = "e-m:e-p270:32:32-p271:32:32-p272:64:64-i64:64-i128:128-f80:128-n8:16:32:64-S128"
target triple = "x86_64-pc-linux-gnu"

%struct.pointf_s = type { double, double }
%struct.boxf = type { %struct.pointf_s, %struct.pointf_s }
%struct.field_t = type { %struct.pointf_s, %struct.boxf, i32, ptr, ptr, ptr, i8, i8 }

; Function Attrs: nounwind uwtable
define internal void @pos_reclbl(ptr noundef %0, double %1, double %2, i8 noundef zeroext %3) #0 {
  %5 = alloca %struct.pointf_s, align 8
  %6 = alloca ptr, align 8
  %7 = alloca i8, align 1
  %8 = alloca i32, align 4
  %9 = alloca i32, align 4
  %10 = alloca i8, align 1
  %11 = alloca %struct.pointf_s, align 8
  %12 = alloca %struct.pointf_s, align 8
  %13 = getelementptr inbounds nuw { double, double }, ptr %5, i32 0, i32 0
  store double %1, ptr %13, align 8
  %14 = getelementptr inbounds nuw { double, double }, ptr %5, i32 0, i32 1
  store double %2, ptr %14, align 8
  store ptr %0, ptr %6, align 8, !tbaa !120
  store i8 %3, ptr %7, align 1, !tbaa !98
  call void @llvm.lifetime.start.p0(i64 4, ptr %8) #13
  call void @llvm.lifetime.start.p0(i64 4, ptr %9) #13
  call void @llvm.lifetime.start.p0(i64 1, ptr %10) #13
  %15 = load i8, ptr %7, align 1, !tbaa !98
  %16 = load ptr, ptr %6, align 8, !tbaa !120
  %17 = getelementptr inbounds nuw %struct.field_t, ptr %16, i32 0, i32 7
  store i8 %15, ptr %17, align 1, !tbaa !189
  %18 = load ptr, ptr %6, align 8, !tbaa !120
  %19 = getelementptr inbounds nuw %struct.field_t, ptr %18, i32 0, i32 1
  %20 = getelementptr inbounds nuw %struct.boxf, ptr %19, i32 0, i32 0
  %21 = getelementptr inbounds nuw %struct.pointf_s, ptr %11, i32 0, i32 0
  %22 = getelementptr inbounds nuw %struct.pointf_s, ptr %5, i32 0, i32 0
  %23 = load double, ptr %22, align 8, !tbaa !21
  store double %23, ptr %21, align 8, !tbaa !21
  %24 = getelementptr inbounds nuw %struct.pointf_s, ptr %11, i32 0, i32 1
  %25 = getelementptr inbounds nuw %struct.pointf_s, ptr %5, i32 0, i32 1
  %26 = load double, ptr %25, align 8, !tbaa !23
  %27 = load ptr, ptr %6, align 8, !tbaa !120
  %28 = getelementptr inbounds nuw %struct.field_t, ptr %27, i32 0, i32 0
  %29 = getelementptr inbounds nuw %struct.pointf_s, ptr %28, i32 0, i32 1
  %30 = load double, ptr %29, align 8, !tbaa !125
  %31 = fsub double %26, %30
  store double %31, ptr %24, align 8, !tbaa !23
  call void @llvm.memcpy.p0.p0.i64(ptr align 8 %20, ptr align 8 %11, i64 16, i1 false), !tbaa.struct !16
  %32 = load ptr, ptr %6, align 8, !tbaa !120
  %33 = getelementptr inbounds nuw %struct.field_t, ptr %32, i32 0, i32 1
  %34 = getelementptr inbounds nuw %struct.boxf, ptr %33, i32 0, i32 1
  %35 = getelementptr inbounds nuw %struct.pointf_s, ptr %12, i32 0, i32 0
  %36 = getelementptr inbounds nuw %struct.pointf_s, ptr %5, i32 0, i32 0
  %37 = load double, ptr %36, align 8, !tbaa !21
  %38 = load ptr, ptr %6, align 8, !tbaa !120
  %39 = getelementptr inbounds nuw %struct.field_t, ptr %38, i32 0, i32 0
  %40 = getelementptr inbounds nuw %struct.pointf_s, ptr %39, i32 0, i32 0
  %41 = load double, ptr %40, align 8, !tbaa !122
  %42 = fadd double %37, %41
  store double %42, ptr %35, align 8, !tbaa !21
  %43 = getelementptr inbounds nuw %struct.pointf_s, ptr %12, i32 0, i32 1
  %44 = getelementptr inbounds nuw %struct.pointf_s, ptr %5, i32 0, i32 1
  %45 = load double, ptr %44, align 8, !tbaa !23
  store double %45, ptr %43, align 8, !tbaa !23
  call void @llvm.memcpy.p0.p0.i64(ptr align 8 %34, ptr align 8 %12, i64 16, i1 false), !tbaa.struct !16
  %46 = load ptr, ptr %6, align 8, !tbaa !120
  %47 = getelementptr inbounds nuw %struct.field_t, ptr %46, i32 0, i32 2
  %48 = load i32, ptr %47, align 8, !tbaa !185
  %49 = sub nsw i32 %48, 1
  store i32 %49, ptr %9, align 4, !tbaa !12
  store i32 0, ptr %8, align 4, !tbaa !12
  br label %50

50:                                               ; preds = %153, %4
  %51 = load i32, ptr %8, align 4, !tbaa !12
  %52 = load i32, ptr %9, align 4, !tbaa !12
  %53 = icmp sle i32 %51, %52
  br i1 %53, label %54, label %156

54:                                               ; preds = %50
  %55 = load i8, ptr %7, align 1, !tbaa !98
  %56 = icmp ne i8 %55, 0
  br i1 %56, label %57, label %99

57:                                               ; preds = %54
  %58 = load ptr, ptr %6, align 8, !tbaa !120
  %59 = getelementptr inbounds nuw %struct.field_t, ptr %58, i32 0, i32 6
  %60 = load i8, ptr %59, align 8, !tbaa !177
  %61 = icmp ne i8 %60, 0
  br i1 %61, label %62, label %80

62:                                               ; preds = %57
  %63 = load i32, ptr %8, align 4, !tbaa !12
  %64 = icmp eq i32 %63, 0
  br i1 %64, label %65, label %72

65:                                               ; preds = %62
  %66 = load i32, ptr %8, align 4, !tbaa !12
  %67 = load i32, ptr %9, align 4, !tbaa !12
  %68 = icmp eq i32 %66, %67
  br i1 %68, label %69, label %70

69:                                               ; preds = %65
  store i8 15, ptr %10, align 1, !tbaa !98
  br label %71

70:                                               ; preds = %65
  store i8 13, ptr %10, align 1, !tbaa !98
  br label %71

71:                                               ; preds = %70, %69
  br label %79

72:                                               ; preds = %62
  %73 = load i32, ptr %8, align 4, !tbaa !12
  %74 = load i32, ptr %9, align 4, !tbaa !12
  %75 = icmp eq i32 %73, %74
  br i1 %75, label %76, label %77

76:                                               ; preds = %72
  store i8 7, ptr %10, align 1, !tbaa !98
  br label %78

77:                                               ; preds = %72
  store i8 5, ptr %10, align 1, !tbaa !98
  br label %78

78:                                               ; preds = %77, %76
  br label %79

79:                                               ; preds = %78, %71
  br label %98

80:                                               ; preds = %57
  %81 = load i32, ptr %8, align 4, !tbaa !12
  %82 = icmp eq i32 %81, 0
  br i1 %82, label %83, label %90

83:                                               ; preds = %80
  %84 = load i32, ptr %8, align 4, !tbaa !12
  %85 = load i32, ptr %9, align 4, !tbaa !12
  %86 = icmp eq i32 %84, %85
  br i1 %86, label %87, label %88

87:                                               ; preds = %83
  store i8 15, ptr %10, align 1, !tbaa !98
  br label %89

88:                                               ; preds = %83
  store i8 14, ptr %10, align 1, !tbaa !98
  br label %89

89:                                               ; preds = %88, %87
  br label %97

90:                                               ; preds = %80
  %91 = load i32, ptr %8, align 4, !tbaa !12
  %92 = load i32, ptr %9, align 4, !tbaa !12
  %93 = icmp eq i32 %91, %92
  br i1 %93, label %94, label %95

94:                                               ; preds = %90
  store i8 11, ptr %10, align 1, !tbaa !98
  br label %96

95:                                               ; preds = %90
  store i8 10, ptr %10, align 1, !tbaa !98
  br label %96

96:                                               ; preds = %95, %94
  br label %97

97:                                               ; preds = %96, %89
  br label %98

98:                                               ; preds = %97, %79
  br label %100

99:                                               ; preds = %54
  store i8 0, ptr %10, align 1, !tbaa !98
  br label %100

100:                                              ; preds = %99, %98
  %101 = load ptr, ptr %6, align 8, !tbaa !120
  %102 = getelementptr inbounds nuw %struct.field_t, ptr %101, i32 0, i32 4
  %103 = load ptr, ptr %102, align 8, !tbaa !176
  %104 = load i32, ptr %8, align 4, !tbaa !12
  %105 = sext i32 %104 to i64
  %106 = getelementptr inbounds ptr, ptr %103, i64 %105
  %107 = load ptr, ptr %106, align 8, !tbaa !120
  %108 = load i8, ptr %7, align 1, !tbaa !98
  %109 = zext i8 %108 to i32
  %110 = load i8, ptr %10, align 1, !tbaa !98
  %111 = zext i8 %110 to i32
  %112 = and i32 %109, %111
  %113 = trunc i32 %112 to i8
  %114 = getelementptr inbounds nuw { double, double }, ptr %5, i32 0, i32 0
  %115 = load double, ptr %114, align 8
  %116 = getelementptr inbounds nuw { double, double }, ptr %5, i32 0, i32 1
  %117 = load double, ptr %116, align 8
  call void @pos_reclbl(ptr noundef %107, double %115, double %117, i8 noundef zeroext %113)
  %118 = load ptr, ptr %6, align 8, !tbaa !120
  %119 = getelementptr inbounds nuw %struct.field_t, ptr %118, i32 0, i32 6
  %120 = load i8, ptr %119, align 8, !tbaa !177
  %121 = icmp ne i8 %120, 0
  br i1 %121, label %122, label %137

122:                                              ; preds = %100
  %123 = getelementptr inbounds nuw %struct.pointf_s, ptr %5, i32 0, i32 0
  %124 = load double, ptr %123, align 8, !tbaa !21
  %125 = load ptr, ptr %6, align 8, !tbaa !120
  %126 = getelementptr inbounds nuw %struct.field_t, ptr %125, i32 0, i32 4
  %127 = load ptr, ptr %126, align 8, !tbaa !176
  %128 = load i32, ptr %8, align 4, !tbaa !12
  %129 = sext i32 %128 to i64
  %130 = getelementptr inbounds ptr, ptr %127, i64 %129
  %131 = load ptr, ptr %130, align 8, !tbaa !120
  %132 = getelementptr inbounds nuw %struct.field_t, ptr %131, i32 0, i32 0
  %133 = getelementptr inbounds nuw %struct.pointf_s, ptr %132, i32 0, i32 0
  %134 = load double, ptr %133, align 8, !tbaa !122
  %135 = fadd double %124, %134
  %136 = getelementptr inbounds nuw %struct.pointf_s, ptr %5, i32 0, i32 0
  store double %135, ptr %136, align 8, !tbaa !21
  br label %152

137:                                              ; preds = %100
  %138 = getelementptr inbounds nuw %struct.pointf_s, ptr %5, i32 0, i32 1
  %139 = load double, ptr %138, align 8, !tbaa !23
  %140 = load ptr, ptr %6, align 8, !tbaa !120
  %141 = getelementptr inbounds nuw %struct.field_t, ptr %140, i32 0, i32 4
  %142 = load ptr, ptr %141, align 8, !tbaa !176
  %143 = load i32, ptr %8, align 4, !tbaa !12
  %144 = sext i32 %143 to i64
  %145 = getelementptr inbounds ptr, ptr %142, i64 %144
  %146 = load ptr, ptr %145, align 8, !tbaa !120
  %147 = getelementptr inbounds nuw %struct.field_t, ptr %146, i32 0, i32 0
  %148 = getelementptr inbounds nuw %struct.pointf_s, ptr %147, i32 0, i32 1
  %149 = load double, ptr %148, align 8, !tbaa !125
  %150 = fsub double %139, %149
  %151 = getelementptr inbounds nuw %struct.pointf_s, ptr %5, i32 0, i32 1
  store double %150, ptr %151, align 8, !tbaa !23
  br label %152

152:                                              ; preds = %137, %122
  br label %153

153:                                              ; preds = %152
  %154 = load i32, ptr %8, align 4, !tbaa !12
  %155 = add nsw i32 %154, 1
  store i32 %155, ptr %8, align 4, !tbaa !12
  br label %50, !llvm.loop !190

156:                                              ; preds = %50
  call void @llvm.lifetime.end.p0(i64 1, ptr %10) #13
  call void @llvm.lifetime.end.p0(i64 4, ptr %9) #13
  call void @llvm.lifetime.end.p0(i64 4, ptr %8) #13
  ret void
}