; Function Attrs: nofree nosync nounwind memory(readwrite, inaccessiblemem: none) uwtable
define internal fastcc void @pos_reclbl(ptr noundef captures(none) initializes((16, 48), (81, 82)) %0, double %1, double %2, i8 noundef zeroext range(i8 0, 16) %3) unnamed_addr #18 {
  %5 = getelementptr inbounds nuw i8, ptr %0, i64 81
  store i8 %3, ptr %5, align 1, !tbaa !167
  %6 = getelementptr inbounds nuw i8, ptr %0, i64 16
  %7 = getelementptr inbounds nuw i8, ptr %0, i64 8
  %8 = load double, ptr %7, align 8, !tbaa !107
  %9 = fsub double %2, %8
  store double %1, ptr %6, align 8, !tbaa !4
  %.sroa.22.0..sroa_idx = getelementptr inbounds nuw i8, ptr %0, i64 24
  store double %9, ptr %.sroa.22.0..sroa_idx, align 8, !tbaa !4
  %10 = getelementptr inbounds nuw i8, ptr %0, i64 32
  %11 = load double, ptr %0, align 8, !tbaa !104
  %12 = fadd double %1, %11
  store double %12, ptr %10, align 8, !tbaa !4
  %.sroa.2.0..sroa_idx = getelementptr inbounds nuw i8, ptr %0, i64 40
  store double %2, ptr %.sroa.2.0..sroa_idx, align 8, !tbaa !4
  %13 = getelementptr inbounds nuw i8, ptr %0, i64 48
  %14 = load i32, ptr %13, align 8, !tbaa !163
  %15 = add nsw i32 %14, -1
  %.not.not46 = icmp sgt i32 %14, 0
  br i1 %.not.not46, label %.lr.ph, label %._crit_edge

.lr.ph:                                           ; preds = %4
  %.not = icmp eq i8 %3, 0
  %16 = getelementptr inbounds nuw i8, ptr %0, i64 80
  %17 = icmp eq i32 %15, 0
  %. = select i1 %17, i8 15, i8 13
  %.44 = select i1 %17, i8 15, i8 14
  %18 = getelementptr inbounds nuw i8, ptr %0, i64 64
  br i1 %.not, label %.lr.ph.split.us.preheader, label %.lr.ph.split.preheader

.lr.ph.split.preheader:                           ; preds = %.lr.ph
  %19 = zext nneg i32 %15 to i64
  %wide.trip.count = zext nneg i32 %14 to i64
  %.pre = load i8, ptr %16, align 8, !tbaa !153
  br label %.lr.ph.split

.lr.ph.split.us.preheader:                        ; preds = %.lr.ph
  %wide.trip.count55 = zext nneg i32 %14 to i64
  %.pre57 = load ptr, ptr %18, align 8, !tbaa !152
  br label %.lr.ph.split.us

.lr.ph.split.us:                                  ; preds = %.lr.ph.split.us.preheader, %34
  %20 = phi ptr [ %.pre57, %.lr.ph.split.us.preheader ], [ %24, %34 ]
  %indvars.iv52 = phi i64 [ 0, %.lr.ph.split.us.preheader ], [ %indvars.iv.next53, %34 ]
  %.sroa.6.049.us = phi double [ %2, %.lr.ph.split.us.preheader ], [ %.sroa.6.1.us, %34 ]
  %.sroa.032.048.us = phi double [ %1, %.lr.ph.split.us.preheader ], [ %.sroa.032.1.us, %34 ]
  %21 = getelementptr inbounds nuw ptr, ptr %20, i64 %indvars.iv52
  %22 = load ptr, ptr %21, align 8, !tbaa !156
  tail call fastcc void @pos_reclbl(ptr noundef %22, double %.sroa.032.048.us, double %.sroa.6.049.us, i8 noundef zeroext 0)
  %23 = load i8, ptr %16, align 8, !tbaa !153
  %.not42.us = icmp eq i8 %23, 0
  %24 = load ptr, ptr %18, align 8, !tbaa !152
  %25 = getelementptr inbounds nuw ptr, ptr %24, i64 %indvars.iv52
  %26 = load ptr, ptr %25, align 8, !tbaa !156
  br i1 %.not42.us, label %30, label %27

27:                                               ; preds = %.lr.ph.split.us
  %28 = load double, ptr %26, align 8, !tbaa !104
  %29 = fadd double %.sroa.032.048.us, %28
  br label %34

30:                                               ; preds = %.lr.ph.split.us
  %31 = getelementptr inbounds nuw i8, ptr %26, i64 8
  %32 = load double, ptr %31, align 8, !tbaa !107
  %33 = fsub double %.sroa.6.049.us, %32
  br label %34

34:                                               ; preds = %30, %27
  %.sroa.032.1.us = phi double [ %29, %27 ], [ %.sroa.032.048.us, %30 ]
  %.sroa.6.1.us = phi double [ %.sroa.6.049.us, %27 ], [ %33, %30 ]
  %indvars.iv.next53 = add nuw nsw i64 %indvars.iv52, 1
  %exitcond56.not = icmp eq i64 %indvars.iv.next53, %wide.trip.count55
  br i1 %exitcond56.not, label %._crit_edge, label %.lr.ph.split.us, !llvm.loop !168

.lr.ph.split:                                     ; preds = %.lr.ph.split.preheader, %59
  %35 = phi i8 [ %.pre, %.lr.ph.split.preheader ], [ %48, %59 ]
  %indvars.iv = phi i64 [ 0, %.lr.ph.split.preheader ], [ %indvars.iv.next, %59 ]
  %.sroa.6.049 = phi double [ %2, %.lr.ph.split.preheader ], [ %.sroa.6.1, %59 ]
  %.sroa.032.048 = phi double [ %1, %.lr.ph.split.preheader ], [ %.sroa.032.1, %59 ]
  %.not41 = icmp eq i8 %35, 0
  %36 = icmp eq i64 %indvars.iv, 0
  br i1 %.not41, label %40, label %37

37:                                               ; preds = %.lr.ph.split
  br i1 %36, label %43, label %38

38:                                               ; preds = %37
  %39 = icmp eq i64 %indvars.iv, %19
  %.43 = select i1 %39, i8 7, i8 5
  br label %43

40:                                               ; preds = %.lr.ph.split
  br i1 %36, label %43, label %41

41:                                               ; preds = %40
  %42 = icmp eq i64 %indvars.iv, %19
  %.45 = select i1 %42, i8 11, i8 10
  br label %43

43:                                               ; preds = %40, %37, %41, %38
  %.039 = phi i8 [ %.43, %38 ], [ %.45, %41 ], [ %., %37 ], [ %.44, %40 ]
  %44 = load ptr, ptr %18, align 8, !tbaa !152
  %45 = getelementptr inbounds nuw ptr, ptr %44, i64 %indvars.iv
  %46 = load ptr, ptr %45, align 8, !tbaa !156
  %47 = and i8 %.039, %3
  tail call fastcc void @pos_reclbl(ptr noundef %46, double %.sroa.032.048, double %.sroa.6.049, i8 noundef zeroext %47)
  %48 = load i8, ptr %16, align 8, !tbaa !153
  %.not42 = icmp eq i8 %48, 0
  %49 = load ptr, ptr %18, align 8, !tbaa !152
  %50 = getelementptr inbounds nuw ptr, ptr %49, i64 %indvars.iv
  %51 = load ptr, ptr %50, align 8, !tbaa !156
  br i1 %.not42, label %55, label %52

52:                                               ; preds = %43
  %53 = load double, ptr %51, align 8, !tbaa !104
  %54 = fadd double %.sroa.032.048, %53
  br label %59

55:                                               ; preds = %43
  %56 = getelementptr inbounds nuw i8, ptr %51, i64 8
  %57 = load double, ptr %56, align 8, !tbaa !107
  %58 = fsub double %.sroa.6.049, %57
  br label %59

59:                                               ; preds = %52, %55
  %.sroa.032.1 = phi double [ %54, %52 ], [ %.sroa.032.048, %55 ]
  %.sroa.6.1 = phi double [ %.sroa.6.049, %52 ], [ %58, %55 ]
  %indvars.iv.next = add nuw nsw i64 %indvars.iv, 1
  %exitcond.not = icmp eq i64 %indvars.iv.next, %wide.trip.count
  br i1 %exitcond.not, label %._crit_edge, label %.lr.ph.split, !llvm.loop !168

._crit_edge:                                      ; preds = %59, %34, %4
  ret void
}